target datalayout = "e-m:e-p270:32:32-p271:32:32-p272:64:64-i64:64-i128:128-f80:128-n8:16:32:64-S128"
target triple = "x86_64-pc-linux-gnu"

%struct.H5FL_reg_head_t = type { i8, i32, i32, ptr, i64, ptr }
%struct.H5HF_block_iter_t = type { i8, ptr }
%struct.H5HF_block_loc_t = type { i32, i32, i32, ptr, ptr }

@H5_H5HF_block_loc_t_reg_free_list = internal global %struct.H5FL_reg_head_t { i8 0, i32 0, i32 0, ptr @.str.6, i64 32, ptr null }, align 8
@.str = private unnamed_addr constant [102 x i8] c"generated/home/dtcxzyw/WorkSpace/Projects/compilers/llvm-opt-benchmark/bench/hdf5/hdf5/src/H5HFiter.c\00", align 1
@H5E_HEAP_g = external global i64, align 8
@H5E_CANTDEC_g = external global i64, align 8
@.str.5 = private unnamed_addr constant [57 x i8] c"can't decrement reference count on shared indirect block\00", align 1
@__func__.H5HF__man_iter_up = private unnamed_addr constant [18 x i8] c"H5HF__man_iter_up\00", align 1

; Function Attrs: nounwind uwtable
define i32 @H5HF__man_iter_up(ptr noundef %0) #0 {
  %2 = alloca ptr, align 8
  %3 = alloca ptr, align 8
  %4 = alloca i32, align 4
  %5 = alloca i8, align 1
  store ptr %0, ptr %2, align 8
  store i32 0, ptr %4, align 4
  store i8 0, ptr %5, align 1
  %6 = load ptr, ptr %2, align 8
  %7 = getelementptr inbounds %struct.H5HF_block_iter_t, ptr %6, i32 0, i32 1
  %8 = load ptr, ptr %7, align 8
  %9 = getelementptr inbounds %struct.H5HF_block_loc_t, ptr %8, i32 0, i32 3
  %10 = load ptr, ptr %9, align 8
  %11 = call i32 @H5HF__iblock_decr(ptr noundef %10)
  %12 = icmp slt i32 %11, 0
  br i1 %12, label %13, label %28

13:                                               ; preds = %1
  br label %14

14:                                               ; preds = %13
  br label %15

15:                                               ; preds = %14
  br label %16

16:                                               ; preds = %15
  %17 = load i64, ptr @H5E_HEAP_g, align 8
  %18 = load i64, ptr @H5E_CANTDEC_g, align 8
  %19 = call i32 (ptr, ptr, i32, i64, i64, ptr, ...) @H5E_printf_stack(ptr noundef @.str, ptr noundef @__func__.H5HF__man_iter_up, i32 noundef 450, i64 noundef %17, i64 noundef %18, ptr noundef @.str.5)
  br label %20

20:                                               ; preds = %16
  store i8 1, ptr %5, align 1
  %21 = load i8, ptr %5, align 1
  %22 = trunc i8 %21 to i1
  %23 = zext i1 %22 to i8
  store i8 %23, ptr %5, align 1
  br label %24

24:                                               ; preds = %20
  br label %25

25:                                               ; preds = %24
  store i32 -1, ptr %4, align 4
  br label %43

26:                                               ; No predecessors!
  br label %27

27:                                               ; preds = %26
  br label %28

28:                                               ; preds = %27, %1
  %29 = load ptr, ptr %2, align 8
  %30 = getelementptr inbounds %struct.H5HF_block_iter_t, ptr %29, i32 0, i32 1
  %31 = load ptr, ptr %30, align 8
  %32 = getelementptr inbounds %struct.H5HF_block_loc_t, ptr %31, i32 0, i32 4
  %33 = load ptr, ptr %32, align 8
  store ptr %33, ptr %3, align 8
  %34 = load ptr, ptr %2, align 8
  %35 = getelementptr inbounds %struct.H5HF_block_iter_t, ptr %34, i32 0, i32 1
  %36 = load ptr, ptr %35, align 8
  %37 = call ptr @H5FL_reg_free(ptr noundef @H5_H5HF_block_loc_t_reg_free_list, ptr noundef %36)
  %38 = load ptr, ptr %2, align 8
  %39 = getelementptr inbounds %struct.H5HF_block_iter_t, ptr %38, i32 0, i32 1
  store ptr %37, ptr %39, align 8
  %40 = load ptr, ptr %3, align 8
  %41 = load ptr, ptr %2, align 8
  %42 = getelementptr inbounds %struct.H5HF_block_iter_t, ptr %41, i32 0, i32 1
  store ptr %40, ptr %42, align 8
  br label %43

43:                                               ; preds = %28, %25
  %44 = load i32, ptr %4, align 4
  ret i32 %44
}