; Function Attrs: nounwind uwtable
define range(i32 -1, 1) i32 @H5HF__man_iter_up(ptr nocapture noundef %0) local_unnamed_addr #2 {
  %2 = getelementptr inbounds i8, ptr %0, i64 8
  %3 = load ptr, ptr %2, align 8
  %4 = getelementptr inbounds i8, ptr %3, i64 16
  %5 = load ptr, ptr %4, align 8
  %6 = tail call i32 @H5HF__iblock_decr(ptr noundef %5) #8
  %7 = icmp slt i32 %6, 0
  br i1 %7, label %8, label %12

8:                                                ; preds = %1
  %9 = load i64, ptr @H5E_HEAP_g, align 8
  %10 = load i64, ptr @H5E_CANTDEC_g, align 8
  %11 = tail call i32 (ptr, ptr, i32, i64, i64, ptr, ...) @H5E_printf_stack(ptr noundef nonnull @.str, ptr noundef nonnull @__func__.H5HF__man_iter_up, i32 noundef 450, i64 noundef %9, i64 noundef %10, ptr noundef nonnull @.str.5) #8
  br label %17

12:                                               ; preds = %1
  %13 = load ptr, ptr %2, align 8
  %14 = getelementptr inbounds i8, ptr %13, i64 24
  %15 = load ptr, ptr %14, align 8
  %16 = tail call ptr @H5FL_reg_free(ptr noundef nonnull @H5_H5HF_block_loc_t_reg_free_list, ptr noundef %13) #8
  store ptr %15, ptr %2, align 8
  br label %17

17:                                               ; preds = %12, %8
  %.0 = phi i32 [ -1, %8 ], [ 0, %12 ]
  ret i32 %.0
}